target datalayout = "e-m:e-p270:32:32-p271:32:32-p272:64:64-i64:64-i128:128-f80:128-n8:16:32:64-S128"
target triple = "x86_64-pc-linux-gnu"

; Function Attrs: nounwind uwtable
define internal double @m_remainder(double noundef %0, double noundef %1) #0 {
  %3 = alloca double, align 8
  %4 = alloca double, align 8
  %5 = alloca double, align 8
  %6 = alloca double, align 8
  %7 = alloca double, align 8
  %8 = alloca double, align 8
  %9 = alloca double, align 8
  %10 = alloca double, align 8
  %11 = alloca i32, align 4
  store double %0, ptr %4, align 8, !tbaa !13
  store double %1, ptr %5, align 8, !tbaa !13
  %12 = load double, ptr %4, align 8, !tbaa !13
  %13 = call i1 @llvm.is.fpclass.f64(double %12, i32 504)
  br i1 %13, label %14, label %60

14:                                               ; preds = %2
  %15 = load double, ptr %5, align 8, !tbaa !13
  %16 = call i1 @llvm.is.fpclass.f64(double %15, i32 504)
  br i1 %16, label %17, label %60

17:                                               ; preds = %14
  call void @llvm.lifetime.start.p0(i64 8, ptr %6) #10
  call void @llvm.lifetime.start.p0(i64 8, ptr %7) #10
  call void @llvm.lifetime.start.p0(i64 8, ptr %8) #10
  call void @llvm.lifetime.start.p0(i64 8, ptr %9) #10
  call void @llvm.lifetime.start.p0(i64 8, ptr %10) #10
  %18 = load double, ptr %5, align 8, !tbaa !13
  %19 = fcmp oeq double %18, 0.000000e+00
  br i1 %19, label %20, label %21

20:                                               ; preds = %17
  store double 0x7FF8000000000000, ptr %3, align 8
  store i32 1, ptr %11, align 4
  br label %59

21:                                               ; preds = %17
  %22 = load double, ptr %4, align 8, !tbaa !13
  %23 = call double @llvm.fabs.f64(double %22)
  store double %23, ptr %6, align 8, !tbaa !13
  %24 = load double, ptr %5, align 8, !tbaa !13
  %25 = call double @llvm.fabs.f64(double %24)
  store double %25, ptr %7, align 8, !tbaa !13
  %26 = load double, ptr %6, align 8, !tbaa !13
  %27 = load double, ptr %7, align 8, !tbaa !13
  %28 = call double @fmod(double noundef %26, double noundef %27) #10, !tbaa !17
  store double %28, ptr %9, align 8, !tbaa !13
  %29 = load double, ptr %7, align 8, !tbaa !13
  %30 = load double, ptr %9, align 8, !tbaa !13
  %31 = fsub double %29, %30
  store double %31, ptr %8, align 8, !tbaa !13
  %32 = load double, ptr %9, align 8, !tbaa !13
  %33 = load double, ptr %8, align 8, !tbaa !13
  %34 = fcmp olt double %32, %33
  br i1 %34, label %35, label %37

35:                                               ; preds = %21
  %36 = load double, ptr %9, align 8, !tbaa !13
  store double %36, ptr %10, align 8, !tbaa !13
  br label %54

37:                                               ; preds = %21
  %38 = load double, ptr %9, align 8, !tbaa !13
  %39 = load double, ptr %8, align 8, !tbaa !13
  %40 = fcmp ogt double %38, %39
  br i1 %40, label %41, label %44

41:                                               ; preds = %37
  %42 = load double, ptr %8, align 8, !tbaa !13
  %43 = fneg double %42
  store double %43, ptr %10, align 8, !tbaa !13
  br label %53

44:                                               ; preds = %37
  %45 = load double, ptr %9, align 8, !tbaa !13
  %46 = load double, ptr %6, align 8, !tbaa !13
  %47 = load double, ptr %9, align 8, !tbaa !13
  %48 = fsub double %46, %47
  %49 = fmul double 5.000000e-01, %48
  %50 = load double, ptr %7, align 8, !tbaa !13
  %51 = call double @fmod(double noundef %49, double noundef %50) #10, !tbaa !17
  %52 = call double @llvm.fmuladd.f64(double -2.000000e+00, double %51, double %45)
  store double %52, ptr %10, align 8, !tbaa !13
  br label %53

53:                                               ; preds = %44, %41
  br label %54

54:                                               ; preds = %53, %35
  %55 = load double, ptr %4, align 8, !tbaa !13
  %56 = call double @llvm.copysign.f64(double 1.000000e+00, double %55)
  %57 = load double, ptr %10, align 8, !tbaa !13
  %58 = fmul double %56, %57
  store double %58, ptr %3, align 8
  store i32 1, ptr %11, align 4
  br label %59

59:                                               ; preds = %54, %20
  call void @llvm.lifetime.end.p0(i64 8, ptr %10) #10
  call void @llvm.lifetime.end.p0(i64 8, ptr %9) #10
  call void @llvm.lifetime.end.p0(i64 8, ptr %8) #10
  call void @llvm.lifetime.end.p0(i64 8, ptr %7) #10
  call void @llvm.lifetime.end.p0(i64 8, ptr %6) #10
  br label %82

60:                                               ; preds = %14, %2
  %61 = load double, ptr %4, align 8, !tbaa !13
  %62 = call i1 @llvm.is.fpclass.f64(double %61, i32 3)
  br i1 %62, label %63, label %65

63:                                               ; preds = %60
  %64 = load double, ptr %4, align 8, !tbaa !13
  store double %64, ptr %3, align 8
  br label %82

65:                                               ; preds = %60
  %66 = load double, ptr %5, align 8, !tbaa !13
  %67 = call i1 @llvm.is.fpclass.f64(double %66, i32 3)
  br i1 %67, label %68, label %70

68:                                               ; preds = %65
  %69 = load double, ptr %5, align 8, !tbaa !13
  store double %69, ptr %3, align 8
  br label %82

70:                                               ; preds = %65
  %71 = load double, ptr %4, align 8, !tbaa !13
  %72 = call double @llvm.fabs.f64(double %71) #11
  %73 = fcmp oeq double %72, 0x7FF0000000000000
  %74 = bitcast double %71 to i64
  %75 = icmp slt i64 %74, 0
  %76 = select i1 %75, i32 -1, i32 1
  %77 = select i1 %73, i32 %76, i32 0
  %78 = icmp ne i32 %77, 0
  br i1 %78, label %79, label %80

79:                                               ; preds = %70
  store double 0x7FF8000000000000, ptr %3, align 8
  br label %82

80:                                               ; preds = %70
  %81 = load double, ptr %4, align 8, !tbaa !13
  store double %81, ptr %3, align 8
  br label %82

82:                                               ; preds = %80, %79, %68, %63, %59
  %83 = load double, ptr %3, align 8
  ret double %83
}