; Function Attrs: mustprogress nofree nounwind willreturn memory(write) uwtable
define internal double @m_remainder(double noundef %0, double noundef %1) #12 {
  %3 = tail call double @llvm.fabs.f64(double %0)
  %4 = fcmp ueq double %3, 0x7FF0000000000000
  %5 = tail call double @llvm.fabs.f64(double %1)
  %6 = fcmp ueq double %5, 0x7FF0000000000000
  %or.cond = or i1 %4, %6
  br i1 %or.cond, label %25, label %7

7:                                                ; preds = %2
  %8 = fcmp oeq double %1, 0.000000e+00
  br i1 %8, label %31, label %9

9:                                                ; preds = %7
  %10 = frem nnan double %3, %5
  %11 = fsub double %5, %10
  %12 = fcmp olt double %10, %11
  br i1 %12, label %22, label %13

13:                                               ; preds = %9
  %14 = fcmp ogt double %10, %11
  br i1 %14, label %15, label %17

15:                                               ; preds = %13
  %16 = fneg double %11
  br label %22

17:                                               ; preds = %13
  %18 = fsub double %3, %10
  %19 = fmul double %18, 5.000000e-01
  %20 = tail call double @fmod(double noundef %19, double noundef %5) #16, !tbaa !14
  %21 = tail call double @llvm.fmuladd.f64(double %20, double -2.000000e+00, double %10)
  br label %22

22:                                               ; preds = %9, %15, %17
  %.0 = phi double [ %16, %15 ], [ %21, %17 ], [ %10, %9 ]
  %23 = tail call double @llvm.copysign.f64(double 1.000000e+00, double %0)
  %24 = fmul double %23, %.0
  br label %31

25:                                               ; preds = %2
  %26 = fcmp uno double %0, 0.000000e+00
  br i1 %26, label %31, label %27

27:                                               ; preds = %25
  %28 = fcmp uno double %1, 0.000000e+00
  br i1 %28, label %31, label %29

29:                                               ; preds = %27
  %30 = fcmp oeq double %3, 0x7FF0000000000000
  %. = select i1 %30, double 0x7FF8000000000000, double %0
  br label %31

31:                                               ; preds = %29, %27, %25, %22, %7
  %.1 = phi double [ %24, %22 ], [ 0x7FF8000000000000, %7 ], [ %0, %25 ], [ %1, %27 ], [ %., %29 ]
  ret double %.1
}